; ModuleID = '46/659.c'
source_filename = "46/659.c"
target datalayout = "e-m:e-p270:32:32-p271:32:32-p272:64:64-i64:64-f80:128-n8:16:32:64-S128"
target triple = "x86_64-pc-linux-gnu"

@.str = private unnamed_addr constant [5 x i8] c"%d%d\00", align 1
@.str.1 = private unnamed_addr constant [3 x i8] c"%d\00", align 1
@.str.2 = private unnamed_addr constant [4 x i8] c"%d\0A\00", align 1

; Function Attrs: noinline nounwind uwtable
define dso_local void @main() #0 {
  %1 = alloca [100 x [100 x i32]], align 16
  %2 = alloca i32, align 4
  %3 = alloca i32, align 4
  %4 = alloca i32, align 4
  %5 = alloca i32, align 4
  %6 = alloca i32, align 4
  %7 = alloca i32, align 4
  %8 = alloca i32, align 4
  %9 = call i32 (i8*, ...) @__isoc99_scanf(i8* getelementptr inbounds ([5 x i8], [5 x i8]* @.str, i64 0, i64 0), i32* %7, i32* %8)
  store i32 1, i32* %2, align 4
  br label %10

10:                                               ; preds = %31, %0
  %11 = load i32, i32* %2, align 4
  %12 = load i32, i32* %7, align 4
  %13 = icmp sle i32 %11, %12
  br i1 %13, label %14, label %34

14:                                               ; preds = %10
  store i32 1, i32* %3, align 4
  br label %15

15:                                               ; preds = %27, %14
  %16 = load i32, i32* %3, align 4
  %17 = load i32, i32* %8, align 4
  %18 = icmp sle i32 %16, %17
  br i1 %18, label %19, label %30

19:                                               ; preds = %15
  %20 = load i32, i32* %2, align 4
  %21 = sext i32 %20 to i64
  %22 = getelementptr inbounds [100 x [100 x i32]], [100 x [100 x i32]]* %1, i64 0, i64 %21
  %23 = load i32, i32* %3, align 4
  %24 = sext i32 %23 to i64
  %25 = getelementptr inbounds [100 x i32], [100 x i32]* %22, i64 0, i64 %24
  %26 = call i32 (i8*, ...) @__isoc99_scanf(i8* getelementptr inbounds ([3 x i8], [3 x i8]* @.str.1, i64 0, i64 0), i32* %25)
  br label %27

27:                                               ; preds = %19
  %28 = load i32, i32* %3, align 4
  %29 = add nsw i32 %28, 1
  store i32 %29, i32* %3, align 4
  br label %15

30:                                               ; preds = %15
  br label %31

31:                                               ; preds = %30
  %32 = load i32, i32* %2, align 4
  %33 = add nsw i32 %32, 1
  store i32 %33, i32* %2, align 4
  br label %10

34:                                               ; preds = %10
  store i32 0, i32* %5, align 4
  %35 = load i32, i32* %7, align 4
  %36 = load i32, i32* %8, align 4
  %37 = mul nsw i32 %35, %36
  store i32 %37, i32* %6, align 4
  store i32 0, i32* %4, align 4
  br label %38

38:                                               ; preds = %176, %34
  %39 = load i32, i32* %4, align 4
  %40 = add nsw i32 1, %39
  store i32 %40, i32* %3, align 4
  br label %41

41:                                               ; preds = %64, %38
  %42 = load i32, i32* %3, align 4
  %43 = load i32, i32* %8, align 4
  %44 = load i32, i32* %4, align 4
  %45 = sub nsw i32 %43, %44
  %46 = icmp sle i32 %42, %45
  br i1 %46, label %47, label %67

47:                                               ; preds = %41
  %48 = load i32, i32* %4, align 4
  %49 = add nsw i32 1, %48
  %50 = sext i32 %49 to i64
  %51 = getelementptr inbounds [100 x [100 x i32]], [100 x [100 x i32]]* %1, i64 0, i64 %50
  %52 = load i32, i32* %3, align 4
  %53 = sext i32 %52 to i64
  %54 = getelementptr inbounds [100 x i32], [100 x i32]* %51, i64 0, i64 %53
  %55 = load i32, i32* %54, align 4
  %56 = call i32 (i8*, ...) @printf(i8* getelementptr inbounds ([4 x i8], [4 x i8]* @.str.2, i64 0, i64 0), i32 %55)
  %57 = load i32, i32* %5, align 4
  %58 = add nsw i32 %57, 1
  store i32 %58, i32* %5, align 4
  %59 = load i32, i32* %5, align 4
  %60 = load i32, i32* %6, align 4
  %61 = icmp eq i32 %59, %60
  br i1 %61, label %62, label %63

62:                                               ; preds = %47
  br label %67

63:                                               ; preds = %47
  br label %64

64:                                               ; preds = %63
  %65 = load i32, i32* %3, align 4
  %66 = add nsw i32 %65, 1
  store i32 %66, i32* %3, align 4
  br label %41

67:                                               ; preds = %62, %41
  %68 = load i32, i32* %5, align 4
  %69 = load i32, i32* %6, align 4
  %70 = icmp eq i32 %68, %69
  br i1 %70, label %71, label %72

71:                                               ; preds = %67
  br label %179

72:                                               ; preds = %67
  %73 = load i32, i32* %4, align 4
  %74 = add nsw i32 2, %73
  store i32 %74, i32* %2, align 4
  br label %75

75:                                               ; preds = %99, %72
  %76 = load i32, i32* %2, align 4
  %77 = load i32, i32* %7, align 4
  %78 = load i32, i32* %4, align 4
  %79 = sub nsw i32 %77, %78
  %80 = icmp sle i32 %76, %79
  br i1 %80, label %81, label %102

81:                                               ; preds = %75
  %82 = load i32, i32* %2, align 4
  %83 = sext i32 %82 to i64
  %84 = getelementptr inbounds [100 x [100 x i32]], [100 x [100 x i32]]* %1, i64 0, i64 %83
  %85 = load i32, i32* %8, align 4
  %86 = load i32, i32* %4, align 4
  %87 = sub nsw i32 %85, %86
  %88 = sext i32 %87 to i64
  %89 = getelementptr inbounds [100 x i32], [100 x i32]* %84, i64 0, i64 %88
  %90 = load i32, i32* %89, align 4
  %91 = call i32 (i8*, ...) @printf(i8* getelementptr inbounds ([4 x i8], [4 x i8]* @.str.2, i64 0, i64 0), i32 %90)
  %92 = load i32, i32* %5, align 4
  %93 = add nsw i32 %92, 1
  store i32 %93, i32* %5, align 4
  %94 = load i32, i32* %5, align 4
  %95 = load i32, i32* %6, align 4
  %96 = icmp eq i32 %94, %95
  br i1 %96, label %97, label %98

97:                                               ; preds = %81
  br label %102

98:                                               ; preds = %81
  br label %99

99:                                               ; preds = %98
  %100 = load i32, i32* %2, align 4
  %101 = add nsw i32 %100, 1
  store i32 %101, i32* %2, align 4
  br label %75

102:                                              ; preds = %97, %75
  %103 = load i32, i32* %5, align 4
  %104 = load i32, i32* %6, align 4
  %105 = icmp eq i32 %103, %104
  br i1 %105, label %106, label %107

106:                                              ; preds = %102
  br label %179

107:                                              ; preds = %102
  %108 = load i32, i32* %8, align 4
  %109 = sub nsw i32 %108, 1
  %110 = load i32, i32* %4, align 4
  %111 = sub nsw i32 %109, %110
  store i32 %111, i32* %3, align 4
  br label %112

112:                                              ; preds = %135, %107
  %113 = load i32, i32* %3, align 4
  %114 = load i32, i32* %4, align 4
  %115 = icmp sgt i32 %113, %114
  br i1 %115, label %116, label %136

116:                                              ; preds = %112
  %117 = load i32, i32* %7, align 4
  %118 = load i32, i32* %4, align 4
  %119 = sub nsw i32 %117, %118
  %120 = sext i32 %119 to i64
  %121 = getelementptr inbounds [100 x [100 x i32]], [100 x [100 x i32]]* %1, i64 0, i64 %120
  %122 = load i32, i32* %3, align 4
  %123 = sext i32 %122 to i64
  %124 = getelementptr inbounds [100 x i32], [100 x i32]* %121, i64 0, i64 %123
  %125 = load i32, i32* %124, align 4
  %126 = call i32 (i8*, ...) @printf(i8* getelementptr inbounds ([4 x i8], [4 x i8]* @.str.2, i64 0, i64 0), i32 %125)
  %127 = load i32, i32* %3, align 4
  %128 = sub nsw i32 %127, 1
  store i32 %128, i32* %3, align 4
  %129 = load i32, i32* %5, align 4
  %130 = add nsw i32 %129, 1
  store i32 %130, i32* %5, align 4
  %131 = load i32, i32* %5, align 4
  %132 = load i32, i32* %6, align 4
  %133 = icmp eq i32 %131, %132
  br i1 %133, label %134, label %135

134:                                              ; preds = %116
  br label %136

135:                                              ; preds = %116
  br label %112

136:                                              ; preds = %134, %112
  %137 = load i32, i32* %5, align 4
  %138 = load i32, i32* %6, align 4
  %139 = icmp eq i32 %137, %138
  br i1 %139, label %140, label %141

140:                                              ; preds = %136
  br label %179

141:                                              ; preds = %136
  %142 = load i32, i32* %7, align 4
  %143 = sub nsw i32 %142, 1
  %144 = load i32, i32* %4, align 4
  %145 = sub nsw i32 %143, %144
  store i32 %145, i32* %2, align 4
  br label %146

146:                                              ; preds = %169, %141
  %147 = load i32, i32* %2, align 4
  %148 = load i32, i32* %4, align 4
  %149 = add nsw i32 1, %148
  %150 = icmp sgt i32 %147, %149
  br i1 %150, label %151, label %170

151:                                              ; preds = %146
  %152 = load i32, i32* %2, align 4
  %153 = sext i32 %152 to i64
  %154 = getelementptr inbounds [100 x [100 x i32]], [100 x [100 x i32]]* %1, i64 0, i64 %153
  %155 = load i32, i32* %4, align 4
  %156 = add nsw i32 1, %155
  %157 = sext i32 %156 to i64
  %158 = getelementptr inbounds [100 x i32], [100 x i32]* %154, i64 0, i64 %157
  %159 = load i32, i32* %158, align 4
  %160 = call i32 (i8*, ...) @printf(i8* getelementptr inbounds ([4 x i8], [4 x i8]* @.str.2, i64 0, i64 0), i32 %159)
  %161 = load i32, i32* %2, align 4
  %162 = sub nsw i32 %161, 1
  store i32 %162, i32* %2, align 4
  %163 = load i32, i32* %5, align 4
  %164 = add nsw i32 %163, 1
  store i32 %164, i32* %5, align 4
  %165 = load i32, i32* %5, align 4
  %166 = load i32, i32* %6, align 4
  %167 = icmp eq i32 %165, %166
  br i1 %167, label %168, label %169

168:                                              ; preds = %151
  br label %170

169:                                              ; preds = %151
  br label %146

170:                                              ; preds = %168, %146
  %171 = load i32, i32* %5, align 4
  %172 = load i32, i32* %6, align 4
  %173 = icmp eq i32 %171, %172
  br i1 %173, label %174, label %175

174:                                              ; preds = %170
  br label %179

175:                                              ; preds = %170
  br label %176

176:                                              ; preds = %175
  %177 = load i32, i32* %4, align 4
  %178 = add nsw i32 %177, 1
  store i32 %178, i32* %4, align 4
  br label %38

179:                                              ; preds = %174, %140, %106, %71
  ret void
}

declare dso_local i32 @__isoc99_scanf(i8*, ...) #1

declare dso_local i32 @printf(i8*, ...) #1


!llvm.module.flags = !{!0}
!llvm.ident = !{!1}

!0 = !{i32 1, !"wchar_size", i32 4}
!1 = !{!"clang version 10.0.0-4ubuntu1 "}
